
main:     file format elf32-littleriscv


Disassembly of section .text:

00000000 <main-0x4>:
   0:	3e800113          	addi	x2,x0,1000

00000004 <main>:
   4:	fe010113          	addi	x2,x2,-32
   8:	00112e23          	sw	x1,28(x2)
   c:	00812c23          	sw	x8,24(x2)
  10:	02010413          	addi	x8,x2,32
  14:	00400793          	addi	x15,x0,4
  18:	fef42623          	sw	x15,-20(x8)
  1c:	00200793          	addi	x15,x0,2
  20:	fef42423          	sw	x15,-24(x8)
  24:	fe842583          	lw	x11,-24(x8)
  28:	fec42503          	lw	x10,-20(x8)
  2c:	00000097          	auipc	x1,0x0
  30:	024080e7          	jalr	x1,36(x1) # 50 <funcaoTeste>
  34:	fea42223          	sw	x10,-28(x8)
  38:	00000793          	addi	x15,x0,0
  3c:	00078513          	addi	x10,x15,0
  40:	01c12083          	lw	x1,28(x2)
  44:	01812403          	lw	x8,24(x2)
  48:	02010113          	addi	x2,x2,32
  4c:	00008067          	jalr	x0,0(x1)

00000050 <funcaoTeste>:
  50:	fd010113          	addi	x2,x2,-48
  54:	02812623          	sw	x8,44(x2)
  58:	03010413          	addi	x8,x2,48
  5c:	fca42e23          	sw	x10,-36(x8)
  60:	fcb42c23          	sw	x11,-40(x8)
  64:	00500793          	addi	x15,x0,5
  68:	fef42623          	sw	x15,-20(x8)
  6c:	fdc42703          	lw	x14,-36(x8)
  70:	fd842783          	lw	x15,-40(x8)
  74:	00f70733          	add	x14,x14,x15
  78:	fec42783          	lw	x15,-20(x8)
  7c:	00f707b3          	add	x15,x14,x15
  80:	00078513          	addi	x10,x15,0
  84:	02c12403          	lw	x8,44(x2)
  88:	03010113          	addi	x2,x2,48
  8c:	00008067          	jalr	x0,0(x1)
